; Function Attrs: mustprogress nounwind uwtable
define hidden noundef ptr @_ZN11StringDedup10StorageUse6obtainEPVPS0_(ptr noundef %0) local_unnamed_addr #1 align 2 {
  %2 = tail call align 8 ptr @llvm.threadlocal.address.p0(ptr align 8 @_ZN6Thread12_thr_currentE)
  %3 = load ptr, ptr %2, align 8
  %4 = getelementptr inbounds i8, ptr %3, i64 424
  %5 = load volatile i64, ptr %4, align 8
  %6 = and i64 %5, 1
  %7 = icmp eq i64 %6, 0
  br i1 %7, label %8, label %_ZN13GlobalCounter15CriticalSectionC2EP6Thread.exit

8:                                                ; preds = %1
  %9 = load volatile i64, ptr getelementptr inbounds (i8, ptr @_ZN13GlobalCounter15_global_counterE, i64 128), align 8
  %10 = or i64 %9, 1
  br label %_ZN13GlobalCounter15CriticalSectionC2EP6Thread.exit

_ZN13GlobalCounter15CriticalSectionC2EP6Thread.exit: ; preds = %1, %8
  %.0.i.i = phi i64 [ %10, %8 ], [ %5, %1 ]
  %11 = tail call i64 asm sideeffect "xchgq ($2), $0", "=r,0,r,~{memory},~{dirflag},~{fpsr},~{flags}"(i64 %.0.i.i, ptr nonnull %4) #3, !srcloc !7
  %12 = load volatile ptr, ptr %0, align 8
  %13 = getelementptr inbounds i8, ptr %12, i64 8
  %14 = tail call noundef i64 asm sideeffect "lock xaddq $0,($2)", "=r,0,r,~{cc},~{memory},~{dirflag},~{fpsr},~{flags}"(i64 1, ptr nonnull %13) #3, !srcloc !8
  tail call void asm sideeffect "", "~{memory},~{dirflag},~{fpsr},~{flags}"() #3, !srcloc !6
  store volatile i64 %5, ptr %4, align 8
  ret ptr %12
}